target datalayout = "e-m:e-p270:32:32-p271:32:32-p272:64:64-i64:64-i128:128-f80:128-n8:16:32:64-S128"
target triple = "x86_64-pc-linux-gnu"

%struct.object_id = type { [32 x i8], i32 }
%struct.repository = type { ptr, ptr, ptr, ptr, ptr, %struct.strmap, %struct.strmap, %struct.repo_path_cache, ptr, ptr, ptr, ptr, %struct.repo_settings, ptr, ptr, ptr, ptr, ptr, ptr, i32, i32, i32, ptr, ptr, i32, i32, i8 }
%struct.strmap = type { %struct.hashmap, ptr, i8 }
%struct.hashmap = type { ptr, ptr, ptr, i32, i32, i32, i32, i8 }
%struct.repo_path_cache = type { ptr, ptr, ptr, ptr, ptr, ptr, ptr }
%struct.repo_settings = type { i32, i32, i32, i32, i32, i32, i32, i32, i32, i32, i32, i32, ptr, i32, i32, i32, i32, i32, i32, i32, i64, i64, i64 }
%struct.check_mergetag_data = type { i32, ptr }
%struct.commit_extra_header = type { ptr, ptr, ptr, i64 }

@the_repository = external global ptr, align 8
@.str.33 = private unnamed_addr constant [1 x i8] zeroinitializer, align 1
@git_gettext_enabled = external global i32, align 4
@.str.44 = private unnamed_addr constant [30 x i8] c"not a valid object name: '%s'\00", align 1
@.str.72 = private unnamed_addr constant [28 x i8] c"bad mergetag in commit '%s'\00", align 1
@.str.73 = private unnamed_addr constant [34 x i8] c"malformed mergetag in commit '%s'\00", align 1
@.str.74 = private unnamed_addr constant [93 x i8] c"original commit '%s' contains mergetag '%s' that is discarded; use --edit instead of --graft\00", align 1

; Function Attrs: inlinehint nounwind uwtable
define internal i32 @oideq(ptr noundef %0, ptr noundef %1) #4 {
  %3 = alloca ptr, align 8
  %4 = alloca ptr, align 8
  store ptr %0, ptr %3, align 8, !tbaa !39
  store ptr %1, ptr %4, align 8, !tbaa !39
  %5 = load ptr, ptr %3, align 8, !tbaa !39
  %6 = getelementptr inbounds nuw %struct.object_id, ptr %5, i32 0, i32 0
  %7 = getelementptr inbounds [32 x i8], ptr %6, i64 0, i64 0
  %8 = load ptr, ptr %4, align 8, !tbaa !39
  %9 = getelementptr inbounds nuw %struct.object_id, ptr %8, i32 0, i32 0
  %10 = getelementptr inbounds [32 x i8], ptr %9, i64 0, i64 0
  %11 = call i32 @memcmp(ptr noundef %7, ptr noundef %10, i64 noundef 32) #12
  %12 = icmp ne i32 %11, 0
  %13 = xor i1 %12, true
  %14 = zext i1 %13 to i32
  ret i32 %14
}

; Function Attrs: inlinehint nounwind uwtable
define internal i32 @const_error() #4 {
  ret i32 -1
}

; Function Attrs: inlinehint nounwind uwtable
define internal ptr @_(ptr noundef %0) #4 {
  %2 = alloca ptr, align 8
  %3 = alloca ptr, align 8
  store ptr %0, ptr %3, align 8, !tbaa !11
  %4 = load ptr, ptr %3, align 8, !tbaa !11
  %5 = load i8, ptr %4, align 1, !tbaa !30
  %6 = icmp ne i8 %5, 0
  br i1 %6, label %8, label %7

7:                                                ; preds = %1
  store ptr @.str.33, ptr %2, align 8
  br label %16

8:                                                ; preds = %1
  %9 = load i32, ptr @git_gettext_enabled, align 4, !tbaa !4
  %10 = icmp ne i32 %9, 0
  br i1 %10, label %13, label %11

11:                                               ; preds = %8
  %12 = load ptr, ptr %3, align 8, !tbaa !11
  store ptr %12, ptr %2, align 8
  br label %16

13:                                               ; preds = %8
  %14 = load ptr, ptr %3, align 8, !tbaa !11
  %15 = call ptr @dcgettext(ptr noundef null, ptr noundef %14, i32 noundef 5) #10
  store ptr %15, ptr %2, align 8
  br label %16

16:                                               ; preds = %13, %11, %7
  %17 = load ptr, ptr %2, align 8
  ret ptr %17
}

; Function Attrs: nounwind uwtable
define internal i32 @check_one_mergetag(ptr noundef %0, ptr noundef %1, ptr noundef %2) #0 {
  %4 = alloca i32, align 4
  %5 = alloca ptr, align 8
  %6 = alloca ptr, align 8
  %7 = alloca ptr, align 8
  %8 = alloca ptr, align 8
  %9 = alloca ptr, align 8
  %10 = alloca %struct.object_id, align 4
  %11 = alloca ptr, align 8
  %12 = alloca i32, align 4
  %13 = alloca i32, align 4
  %14 = alloca %struct.object_id, align 4
  store ptr %0, ptr %5, align 8, !tbaa !41
  store ptr %1, ptr %6, align 8, !tbaa !91
  store ptr %2, ptr %7, align 8, !tbaa !29
  call void @llvm.lifetime.start.p0(i64 8, ptr %8) #10
  %15 = load ptr, ptr %7, align 8, !tbaa !29
  store ptr %15, ptr %8, align 8, !tbaa !93
  call void @llvm.lifetime.start.p0(i64 8, ptr %9) #10
  %16 = load ptr, ptr %8, align 8, !tbaa !93
  %17 = getelementptr inbounds nuw %struct.check_mergetag_data, ptr %16, i32 0, i32 1
  %18 = load ptr, ptr %17, align 8, !tbaa !90
  %19 = getelementptr inbounds ptr, ptr %18, i64 0
  %20 = load ptr, ptr %19, align 8, !tbaa !11
  store ptr %20, ptr %9, align 8, !tbaa !11
  call void @llvm.lifetime.start.p0(i64 36, ptr %10) #10
  call void @llvm.lifetime.start.p0(i64 8, ptr %11) #10
  call void @llvm.lifetime.start.p0(i64 4, ptr %12) #10
  %21 = load ptr, ptr @the_repository, align 8, !tbaa !13
  %22 = getelementptr inbounds nuw %struct.repository, ptr %21, i32 0, i32 17
  %23 = load ptr, ptr %22, align 8, !tbaa !58
  %24 = load ptr, ptr %6, align 8, !tbaa !91
  %25 = getelementptr inbounds nuw %struct.commit_extra_header, ptr %24, i32 0, i32 2
  %26 = load ptr, ptr %25, align 8, !tbaa !95
  %27 = load ptr, ptr %6, align 8, !tbaa !91
  %28 = getelementptr inbounds nuw %struct.commit_extra_header, ptr %27, i32 0, i32 3
  %29 = load i64, ptr %28, align 8, !tbaa !97
  call void @hash_object_file(ptr noundef %23, ptr noundef %26, i64 noundef %29, i32 noundef 4, ptr noundef %10)
  %30 = load ptr, ptr @the_repository, align 8, !tbaa !13
  %31 = call ptr @lookup_tag(ptr noundef %30, ptr noundef %10)
  store ptr %31, ptr %11, align 8, !tbaa !98
  %32 = load ptr, ptr %11, align 8, !tbaa !98
  %33 = icmp ne ptr %32, null
  br i1 %33, label %39, label %34

34:                                               ; preds = %3
  %35 = call ptr @_(ptr noundef @.str.72)
  %36 = load ptr, ptr %9, align 8, !tbaa !11
  %37 = call i32 (ptr, ...) @error(ptr noundef %35, ptr noundef %36)
  %38 = call i32 @const_error()
  store i32 %38, ptr %4, align 4
  store i32 1, ptr %13, align 4
  br label %103

39:                                               ; preds = %3
  %40 = load ptr, ptr @the_repository, align 8, !tbaa !13
  %41 = load ptr, ptr %11, align 8, !tbaa !98
  %42 = load ptr, ptr %6, align 8, !tbaa !91
  %43 = getelementptr inbounds nuw %struct.commit_extra_header, ptr %42, i32 0, i32 2
  %44 = load ptr, ptr %43, align 8, !tbaa !95
  %45 = load ptr, ptr %6, align 8, !tbaa !91
  %46 = getelementptr inbounds nuw %struct.commit_extra_header, ptr %45, i32 0, i32 3
  %47 = load i64, ptr %46, align 8, !tbaa !97
  %48 = call i32 @parse_tag_buffer(ptr noundef %40, ptr noundef %41, ptr noundef %44, i64 noundef %47)
  %49 = icmp ne i32 %48, 0
  br i1 %49, label %50, label %55

50:                                               ; preds = %39
  %51 = call ptr @_(ptr noundef @.str.73)
  %52 = load ptr, ptr %9, align 8, !tbaa !11
  %53 = call i32 (ptr, ...) @error(ptr noundef %51, ptr noundef %52)
  %54 = call i32 @const_error()
  store i32 %54, ptr %4, align 4
  store i32 1, ptr %13, align 4
  br label %103

55:                                               ; preds = %39
  store i32 1, ptr %12, align 4, !tbaa !4
  br label %56

56:                                               ; preds = %94, %55
  %57 = load i32, ptr %12, align 4, !tbaa !4
  %58 = load ptr, ptr %8, align 8, !tbaa !93
  %59 = getelementptr inbounds nuw %struct.check_mergetag_data, ptr %58, i32 0, i32 0
  %60 = load i32, ptr %59, align 8, !tbaa !88
  %61 = icmp slt i32 %57, %60
  br i1 %61, label %62, label %97

62:                                               ; preds = %56
  call void @llvm.lifetime.start.p0(i64 36, ptr %14) #10
  %63 = load ptr, ptr @the_repository, align 8, !tbaa !13
  %64 = load ptr, ptr %8, align 8, !tbaa !93
  %65 = getelementptr inbounds nuw %struct.check_mergetag_data, ptr %64, i32 0, i32 1
  %66 = load ptr, ptr %65, align 8, !tbaa !90
  %67 = load i32, ptr %12, align 4, !tbaa !4
  %68 = sext i32 %67 to i64
  %69 = getelementptr inbounds ptr, ptr %66, i64 %68
  %70 = load ptr, ptr %69, align 8, !tbaa !11
  %71 = call i32 @repo_get_oid(ptr noundef %63, ptr noundef %70, ptr noundef %14)
  %72 = icmp slt i32 %71, 0
  br i1 %72, label %73, label %84

73:                                               ; preds = %62
  %74 = call ptr @_(ptr noundef @.str.44)
  %75 = load ptr, ptr %8, align 8, !tbaa !93
  %76 = getelementptr inbounds nuw %struct.check_mergetag_data, ptr %75, i32 0, i32 1
  %77 = load ptr, ptr %76, align 8, !tbaa !90
  %78 = load i32, ptr %12, align 4, !tbaa !4
  %79 = sext i32 %78 to i64
  %80 = getelementptr inbounds ptr, ptr %77, i64 %79
  %81 = load ptr, ptr %80, align 8, !tbaa !11
  %82 = call i32 (ptr, ...) @error(ptr noundef %74, ptr noundef %81)
  %83 = call i32 @const_error()
  store i32 %83, ptr %4, align 4
  store i32 1, ptr %13, align 4
  br label %91

84:                                               ; preds = %62
  %85 = load ptr, ptr %11, align 8, !tbaa !98
  %86 = call ptr @get_tagged_oid(ptr noundef %85)
  %87 = call i32 @oideq(ptr noundef %86, ptr noundef %14)
  %88 = icmp ne i32 %87, 0
  br i1 %88, label %89, label %90

89:                                               ; preds = %84
  store i32 0, ptr %4, align 4
  store i32 1, ptr %13, align 4
  br label %91

90:                                               ; preds = %84
  store i32 0, ptr %13, align 4
  br label %91

91:                                               ; preds = %90, %89, %73
  call void @llvm.lifetime.end.p0(i64 36, ptr %14) #10
  %92 = load i32, ptr %13, align 4
  switch i32 %92, label %103 [
    i32 0, label %93
  ]

93:                                               ; preds = %91
  br label %94

94:                                               ; preds = %93
  %95 = load i32, ptr %12, align 4, !tbaa !4
  %96 = add nsw i32 %95, 1
  store i32 %96, ptr %12, align 4, !tbaa !4
  br label %56, !llvm.loop !100

97:                                               ; preds = %56
  %98 = call ptr @_(ptr noundef @.str.74)
  %99 = load ptr, ptr %9, align 8, !tbaa !11
  %100 = call ptr @oid_to_hex(ptr noundef %10)
  %101 = call i32 (ptr, ...) @error(ptr noundef %98, ptr noundef %99, ptr noundef %100)
  %102 = call i32 @const_error()
  store i32 %102, ptr %4, align 4
  store i32 1, ptr %13, align 4
  br label %103

103:                                              ; preds = %97, %91, %50, %34
  call void @llvm.lifetime.end.p0(i64 4, ptr %12) #10
  call void @llvm.lifetime.end.p0(i64 8, ptr %11) #10
  call void @llvm.lifetime.end.p0(i64 36, ptr %10) #10
  call void @llvm.lifetime.end.p0(i64 8, ptr %9) #10
  call void @llvm.lifetime.end.p0(i64 8, ptr %8) #10
  %104 = load i32, ptr %4, align 4
  ret i32 %104
}