; Function Attrs: nounwind uwtable
define internal range(i32 -1, 1) i32 @check_one_mergetag(ptr readnone captures(none) %0, ptr noundef readonly captures(none) %1, ptr noundef readonly captures(none) %2) #0 {
  %4 = alloca %struct.object_id, align 4
  %5 = alloca %struct.object_id, align 4
  %6 = getelementptr inbounds nuw i8, ptr %2, i64 8
  %7 = load ptr, ptr %6, align 8, !tbaa !72
  %8 = load ptr, ptr %7, align 8, !tbaa !8
  call void @llvm.lifetime.start.p0(i64 36, ptr nonnull %4) #16
  %9 = load ptr, ptr @the_repository, align 8, !tbaa !22
  %10 = getelementptr inbounds nuw i8, ptr %9, i64 400
  %11 = load ptr, ptr %10, align 8, !tbaa !38
  %12 = getelementptr inbounds nuw i8, ptr %1, i64 16
  %13 = load ptr, ptr %12, align 8, !tbaa !76
  %14 = getelementptr inbounds nuw i8, ptr %1, i64 24
  %15 = load i64, ptr %14, align 8, !tbaa !79
  call void @hash_object_file(ptr noundef %11, ptr noundef %13, i64 noundef %15, i32 noundef 4, ptr noundef nonnull %4) #16
  %16 = load ptr, ptr @the_repository, align 8, !tbaa !22
  %17 = call ptr @lookup_tag(ptr noundef %16, ptr noundef nonnull %4) #16
  %.not = icmp eq ptr %17, null
  br i1 %.not, label %18, label %23

18:                                               ; preds = %3
  %19 = load i32, ptr @git_gettext_enabled, align 4, !tbaa !4
  %.not4.i = icmp eq i32 %19, 0
  br i1 %.not4.i, label %_.exit, label %20

20:                                               ; preds = %18
  %21 = call ptr @dcgettext(ptr noundef null, ptr noundef nonnull @.str.72, i32 noundef 5) #16
  br label %_.exit

_.exit:                                           ; preds = %18, %20
  %.0.i = phi ptr [ %21, %20 ], [ @.str.72, %18 ]
  %22 = call i32 (ptr, ...) @error(ptr noundef %.0.i, ptr noundef %8) #16
  br label %.loopexit

23:                                               ; preds = %3
  %24 = load ptr, ptr @the_repository, align 8, !tbaa !22
  %25 = load ptr, ptr %12, align 8, !tbaa !76
  %26 = load i64, ptr %14, align 8, !tbaa !79
  %27 = call i32 @parse_tag_buffer(ptr noundef %24, ptr noundef nonnull %17, ptr noundef %25, i64 noundef %26) #16
  %.not23 = icmp eq i32 %27, 0
  br i1 %.not23, label %.preheader, label %30

.preheader:                                       ; preds = %23
  %28 = load i32, ptr %2, align 8, !tbaa !70
  %29 = icmp sgt i32 %28, 1
  br i1 %29, label %.lr.ph, label %._crit_edge

30:                                               ; preds = %23
  %31 = load i32, ptr @git_gettext_enabled, align 4, !tbaa !4
  %.not4.i25 = icmp eq i32 %31, 0
  br i1 %.not4.i25, label %_.exit27, label %32

32:                                               ; preds = %30
  %33 = call ptr @dcgettext(ptr noundef null, ptr noundef nonnull @.str.73, i32 noundef 5) #16
  br label %_.exit27

_.exit27:                                         ; preds = %30, %32
  %.0.i26 = phi ptr [ %33, %32 ], [ @.str.73, %30 ]
  %34 = call i32 (ptr, ...) @error(ptr noundef %.0.i26, ptr noundef %8) #16
  br label %.loopexit

35:                                               ; preds = %53
  %indvars.iv.next = add nuw nsw i64 %indvars.iv, 1
  %36 = load i32, ptr %2, align 8, !tbaa !70
  %37 = sext i32 %36 to i64
  %38 = icmp slt i64 %indvars.iv.next, %37
  br i1 %38, label %.lr.ph, label %._crit_edge, !llvm.loop !80

.lr.ph:                                           ; preds = %.preheader, %35
  %indvars.iv = phi i64 [ %indvars.iv.next, %35 ], [ 1, %.preheader ]
  call void @llvm.lifetime.start.p0(i64 36, ptr nonnull %5) #16
  %39 = load ptr, ptr @the_repository, align 8, !tbaa !22
  %40 = load ptr, ptr %6, align 8, !tbaa !72
  %41 = getelementptr inbounds nuw ptr, ptr %40, i64 %indvars.iv
  %42 = load ptr, ptr %41, align 8, !tbaa !8
  %43 = call i32 @repo_get_oid(ptr noundef %39, ptr noundef %42, ptr noundef nonnull %5) #16
  %44 = icmp slt i32 %43, 0
  br i1 %44, label %45, label %53

45:                                               ; preds = %.lr.ph
  %46 = load i32, ptr @git_gettext_enabled, align 4, !tbaa !4
  %.not4.i28 = icmp eq i32 %46, 0
  br i1 %.not4.i28, label %.thread, label %47

47:                                               ; preds = %45
  %48 = call ptr @dcgettext(ptr noundef null, ptr noundef nonnull @.str.44, i32 noundef 5) #16
  br label %.thread

.thread:                                          ; preds = %47, %45
  %.0.i29 = phi ptr [ %48, %47 ], [ @.str.44, %45 ]
  %49 = load ptr, ptr %6, align 8, !tbaa !72
  %50 = getelementptr inbounds nuw ptr, ptr %49, i64 %indvars.iv
  %51 = load ptr, ptr %50, align 8, !tbaa !8
  %52 = call i32 (ptr, ...) @error(ptr noundef %.0.i29, ptr noundef %51) #16
  call void @llvm.lifetime.end.p0(i64 36, ptr nonnull %5) #16
  br label %.loopexit

53:                                               ; preds = %.lr.ph
  %54 = call ptr @get_tagged_oid(ptr noundef nonnull %17) #16
  %bcmp.i = call i32 @bcmp(ptr noundef nonnull readonly dereferenceable(32) %54, ptr noundef nonnull readonly dereferenceable(32) %5, i64 32)
  %.not.i.not = icmp eq i32 %bcmp.i, 0
  call void @llvm.lifetime.end.p0(i64 36, ptr nonnull %5) #16
  br i1 %.not.i.not, label %.loopexit, label %35

._crit_edge:                                      ; preds = %35, %.preheader
  %55 = load i32, ptr @git_gettext_enabled, align 4, !tbaa !4
  %.not4.i31 = icmp eq i32 %55, 0
  br i1 %.not4.i31, label %_.exit33, label %56

56:                                               ; preds = %._crit_edge
  %57 = call ptr @dcgettext(ptr noundef null, ptr noundef nonnull @.str.74, i32 noundef 5) #16
  br label %_.exit33

_.exit33:                                         ; preds = %._crit_edge, %56
  %.0.i32 = phi ptr [ %57, %56 ], [ @.str.74, %._crit_edge ]
  %58 = call ptr @oid_to_hex(ptr noundef nonnull %4) #16
  %59 = call i32 (ptr, ...) @error(ptr noundef %.0.i32, ptr noundef %8, ptr noundef %58) #16
  br label %.loopexit

.loopexit:                                        ; preds = %53, %.thread, %_.exit33, %_.exit27, %_.exit
  %.021 = phi i32 [ -1, %_.exit27 ], [ -1, %_.exit33 ], [ -1, %_.exit ], [ -1, %.thread ], [ 0, %53 ]
  call void @llvm.lifetime.end.p0(i64 36, ptr nonnull %4) #16
  ret i32 %.021
}